target datalayout = "e-m:e-p270:32:32-p271:32:32-p272:64:64-i64:64-i128:128-f80:128-n8:16:32:64-S128"
target triple = "x86_64-pc-linux-gnu"

@err_string_lock = internal global ptr null, align 8
@err_string_init = internal global i32 0, align 4
@do_err_strings_init_ossl_ret_ = internal global i32 0, align 4
@int_err_library_number = internal global i32 128, align 4

; Function Attrs: nounwind uwtable
define i32 @ERR_get_next_error_library() #0 {
  %1 = alloca i32, align 4
  %2 = alloca i32, align 4
  %3 = alloca i32, align 4
  call void @llvm.lifetime.start.p0(i64 4, ptr %2) #8
  %4 = call i32 @CRYPTO_THREAD_run_once(ptr noundef @err_string_init, ptr noundef @do_err_strings_init_ossl_)
  %5 = icmp ne i32 %4, 0
  br i1 %5, label %6, label %9

6:                                                ; preds = %0
  %7 = load i32, ptr @do_err_strings_init_ossl_ret_, align 4, !tbaa !8
  %8 = icmp ne i32 %7, 0
  br i1 %8, label %11, label %10

9:                                                ; preds = %0
  br i1 false, label %11, label %10

10:                                               ; preds = %9, %6
  store i32 0, ptr %1, align 4
  store i32 1, ptr %3, align 4
  br label %22

11:                                               ; preds = %9, %6
  %12 = load ptr, ptr @err_string_lock, align 8, !tbaa !16
  %13 = call i32 @CRYPTO_THREAD_write_lock(ptr noundef %12)
  %14 = icmp ne i32 %13, 0
  br i1 %14, label %16, label %15

15:                                               ; preds = %11
  store i32 0, ptr %1, align 4
  store i32 1, ptr %3, align 4
  br label %22

16:                                               ; preds = %11
  %17 = load i32, ptr @int_err_library_number, align 4, !tbaa !8
  %18 = add nsw i32 %17, 1
  store i32 %18, ptr @int_err_library_number, align 4, !tbaa !8
  store i32 %17, ptr %2, align 4, !tbaa !8
  %19 = load ptr, ptr @err_string_lock, align 8, !tbaa !16
  %20 = call i32 @CRYPTO_THREAD_unlock(ptr noundef %19)
  %21 = load i32, ptr %2, align 4, !tbaa !8
  store i32 %21, ptr %1, align 4
  store i32 1, ptr %3, align 4
  br label %22

22:                                               ; preds = %16, %15, %10
  call void @llvm.lifetime.end.p0(i64 4, ptr %2) #8
  %23 = load i32, ptr %1, align 4
  ret i32 %23
}