; Function Attrs: nounwind uwtable
define i32 @ERR_get_next_error_library() local_unnamed_addr #0 {
  %1 = tail call i32 @CRYPTO_THREAD_run_once(ptr noundef nonnull @err_string_init, ptr noundef nonnull @do_err_strings_init_ossl_) #10
  %2 = icmp ne i32 %1, 0
  %3 = load i32, ptr @do_err_strings_init_ossl_ret_, align 4
  %4 = icmp ne i32 %3, 0
  %or.cond = select i1 %2, i1 %4, i1 false
  br i1 %or.cond, label %5, label %13

5:                                                ; preds = %0
  %6 = load ptr, ptr @err_string_lock, align 8, !tbaa !14
  %7 = tail call i32 @CRYPTO_THREAD_write_lock(ptr noundef %6) #10
  %.not = icmp eq i32 %7, 0
  br i1 %.not, label %13, label %8

8:                                                ; preds = %5
  %9 = load i32, ptr @int_err_library_number, align 4, !tbaa !3
  %10 = add nsw i32 %9, 1
  store i32 %10, ptr @int_err_library_number, align 4, !tbaa !3
  %11 = load ptr, ptr @err_string_lock, align 8, !tbaa !14
  %12 = tail call i32 @CRYPTO_THREAD_unlock(ptr noundef %11) #10
  br label %13

13:                                               ; preds = %5, %0, %8
  %.0 = phi i32 [ %9, %8 ], [ 0, %0 ], [ 0, %5 ]
  ret i32 %.0
}